target datalayout = "e-m:e-p270:32:32-p271:32:32-p272:64:64-i64:64-i128:128-f80:128-n8:16:32:64-S128"
target triple = "x86_64-pc-linux-gnu"

@.str.24 = private unnamed_addr constant [12 x i8] c"LUT = %d : \00", align 1
@.str.25 = private unnamed_addr constant [16 x i8] c"%d=%d %.1f %%  \00", align 1
@.str.26 = private unnamed_addr constant [12 x i8] c"Ave = %.2f\0A\00", align 1

; Function Attrs: nounwind uwtable
define void @Gia_ManPrintNodeProfile(ptr noundef %0, i32 noundef %1) #0 {
  %3 = alloca ptr, align 8
  %4 = alloca i32, align 4
  %5 = alloca i32, align 4
  %6 = alloca i32, align 4
  %7 = alloca i32, align 4
  store ptr %0, ptr %3, align 8, !tbaa !68
  store i32 %1, ptr %4, align 4, !tbaa !42
  call void @llvm.lifetime.start.p0(i64 4, ptr %5) #14
  call void @llvm.lifetime.start.p0(i64 4, ptr %6) #14
  store i32 0, ptr %6, align 4, !tbaa !42
  call void @llvm.lifetime.start.p0(i64 4, ptr %7) #14
  store i32 0, ptr %7, align 4, !tbaa !42
  store i32 0, ptr %5, align 4, !tbaa !42
  br label %8

8:                                                ; preds = %29, %2
  %9 = load i32, ptr %5, align 4, !tbaa !42
  %10 = load i32, ptr %4, align 4, !tbaa !42
  %11 = icmp sle i32 %9, %10
  br i1 %11, label %12, label %32

12:                                               ; preds = %8
  %13 = load i32, ptr %5, align 4, !tbaa !42
  %14 = load ptr, ptr %3, align 8, !tbaa !68
  %15 = load i32, ptr %5, align 4, !tbaa !42
  %16 = sext i32 %15 to i64
  %17 = getelementptr inbounds i32, ptr %14, i64 %16
  %18 = load i32, ptr %17, align 4, !tbaa !42
  %19 = mul nsw i32 %13, %18
  %20 = load i32, ptr %6, align 4, !tbaa !42
  %21 = add nsw i32 %20, %19
  store i32 %21, ptr %6, align 4, !tbaa !42
  %22 = load ptr, ptr %3, align 8, !tbaa !68
  %23 = load i32, ptr %5, align 4, !tbaa !42
  %24 = sext i32 %23 to i64
  %25 = getelementptr inbounds i32, ptr %22, i64 %24
  %26 = load i32, ptr %25, align 4, !tbaa !42
  %27 = load i32, ptr %7, align 4, !tbaa !42
  %28 = add nsw i32 %27, %26
  store i32 %28, ptr %7, align 4, !tbaa !42
  br label %29

29:                                               ; preds = %12
  %30 = load i32, ptr %5, align 4, !tbaa !42
  %31 = add nsw i32 %30, 1
  store i32 %31, ptr %5, align 4, !tbaa !42
  br label %8, !llvm.loop !119

32:                                               ; preds = %8
  %33 = load i32, ptr %7, align 4, !tbaa !42
  call void (i32, ptr, ...) @Abc_Print(i32 noundef 1, ptr noundef @.str.24, i32 noundef %33)
  store i32 2, ptr %5, align 4, !tbaa !42
  br label %34

34:                                               ; preds = %55, %32
  %35 = load i32, ptr %5, align 4, !tbaa !42
  %36 = load i32, ptr %4, align 4, !tbaa !42
  %37 = icmp sle i32 %35, %36
  br i1 %37, label %38, label %58

38:                                               ; preds = %34
  %39 = load i32, ptr %5, align 4, !tbaa !42
  %40 = load ptr, ptr %3, align 8, !tbaa !68
  %41 = load i32, ptr %5, align 4, !tbaa !42
  %42 = sext i32 %41 to i64
  %43 = getelementptr inbounds i32, ptr %40, i64 %42
  %44 = load i32, ptr %43, align 4, !tbaa !42
  %45 = load ptr, ptr %3, align 8, !tbaa !68
  %46 = load i32, ptr %5, align 4, !tbaa !42
  %47 = sext i32 %46 to i64
  %48 = getelementptr inbounds i32, ptr %45, i64 %47
  %49 = load i32, ptr %48, align 4, !tbaa !42
  %50 = sitofp i32 %49 to double
  %51 = fmul double 1.000000e+02, %50
  %52 = load i32, ptr %7, align 4, !tbaa !42
  %53 = sitofp i32 %52 to double
  %54 = fdiv double %51, %53
  call void (i32, ptr, ...) @Abc_Print(i32 noundef 1, ptr noundef @.str.25, i32 noundef %39, i32 noundef %44, double noundef %54)
  br label %55

55:                                               ; preds = %38
  %56 = load i32, ptr %5, align 4, !tbaa !42
  %57 = add nsw i32 %56, 1
  store i32 %57, ptr %5, align 4, !tbaa !42
  br label %34, !llvm.loop !120

58:                                               ; preds = %34
  %59 = load i32, ptr %6, align 4, !tbaa !42
  %60 = sitofp i32 %59 to double
  %61 = fmul double 1.000000e+00, %60
  %62 = load i32, ptr %7, align 4, !tbaa !42
  %63 = icmp ne i32 %62, 0
  br i1 %63, label %64, label %66

64:                                               ; preds = %58
  %65 = load i32, ptr %7, align 4, !tbaa !42
  br label %67

66:                                               ; preds = %58
  br label %67

67:                                               ; preds = %66, %64
  %68 = phi i32 [ %65, %64 ], [ 1, %66 ]
  %69 = sitofp i32 %68 to double
  %70 = fdiv double %61, %69
  call void (i32, ptr, ...) @Abc_Print(i32 noundef 1, ptr noundef @.str.26, double noundef %70)
  call void @llvm.lifetime.end.p0(i64 4, ptr %7) #14
  call void @llvm.lifetime.end.p0(i64 4, ptr %6) #14
  call void @llvm.lifetime.end.p0(i64 4, ptr %5) #14
  ret void
}