; Function Attrs: nounwind uwtable
define void @Gia_ManPrintNodeProfile(ptr noundef readonly captures(none) %0, i32 noundef %1) local_unnamed_addr #4 {
  %.not27 = icmp slt i32 %1, 0
  br i1 %.not27, label %._crit_edge.thread, label %.lr.ph.preheader

._crit_edge.thread:                               ; preds = %2
  tail call void (i32, ptr, ...) @Abc_Print(i32 noundef 1, ptr noundef nonnull @.str.24, i32 noundef 0)
  br label %._crit_edge36

.lr.ph.preheader:                                 ; preds = %2
  %3 = add nuw i32 %1, 1
  %wide.trip.count = zext i32 %3 to i64
  br label %.lr.ph

.lr.ph:                                           ; preds = %.lr.ph.preheader, %.lr.ph
  %indvars.iv = phi i64 [ 0, %.lr.ph.preheader ], [ %indvars.iv.next, %.lr.ph ]
  %.030 = phi i32 [ 0, %.lr.ph.preheader ], [ %9, %.lr.ph ]
  %.02229 = phi i32 [ 0, %.lr.ph.preheader ], [ %8, %.lr.ph ]
  %4 = getelementptr inbounds nuw i32, ptr %0, i64 %indvars.iv
  %5 = load i32, ptr %4, align 4, !tbaa !48
  %6 = trunc nuw nsw i64 %indvars.iv to i32
  %7 = mul nsw i32 %5, %6
  %8 = add nsw i32 %7, %.02229
  %9 = add nsw i32 %5, %.030
  %indvars.iv.next = add nuw nsw i64 %indvars.iv, 1
  %exitcond.not = icmp eq i64 %indvars.iv.next, %wide.trip.count
  br i1 %exitcond.not, label %._crit_edge, label %.lr.ph, !llvm.loop !102

._crit_edge:                                      ; preds = %.lr.ph
  %10 = sitofp i32 %8 to double
  tail call void (i32, ptr, ...) @Abc_Print(i32 noundef 1, ptr noundef nonnull @.str.24, i32 noundef %9)
  %.not2532 = icmp slt i32 %1, 2
  br i1 %.not2532, label %._crit_edge36, label %.lr.ph35

.lr.ph35:                                         ; preds = %._crit_edge
  %11 = sitofp i32 %9 to double
  %12 = add nuw i32 %1, 1
  %wide.trip.count42 = zext i32 %12 to i64
  br label %13

13:                                               ; preds = %.lr.ph35, %13
  %indvars.iv39 = phi i64 [ 2, %.lr.ph35 ], [ %indvars.iv.next40, %13 ]
  %14 = getelementptr inbounds nuw i32, ptr %0, i64 %indvars.iv39
  %15 = load i32, ptr %14, align 4, !tbaa !48
  %16 = sitofp i32 %15 to double
  %17 = fmul double %16, 1.000000e+02
  %18 = fdiv double %17, %11
  %19 = trunc nuw nsw i64 %indvars.iv39 to i32
  tail call void (i32, ptr, ...) @Abc_Print(i32 noundef 1, ptr noundef nonnull @.str.25, i32 noundef %19, i32 noundef %15, double noundef %18)
  %indvars.iv.next40 = add nuw nsw i64 %indvars.iv39, 1
  %exitcond43.not = icmp eq i64 %indvars.iv.next40, %wide.trip.count42
  br i1 %exitcond43.not, label %._crit_edge36, label %13, !llvm.loop !103

._crit_edge36:                                    ; preds = %13, %._crit_edge.thread, %._crit_edge
  %.0.lcssa48 = phi i32 [ 0, %._crit_edge.thread ], [ %9, %._crit_edge ], [ %9, %13 ]
  %.022.lcssa47 = phi double [ 0.000000e+00, %._crit_edge.thread ], [ %10, %._crit_edge ], [ %10, %13 ]
  %20 = tail call i32 @llvm.umax.i32(i32 %.0.lcssa48, i32 1)
  %21 = sitofp i32 %20 to double
  %22 = fdiv double %.022.lcssa47, %21
  tail call void (i32, ptr, ...) @Abc_Print(i32 noundef 1, ptr noundef nonnull @.str.26, double noundef %22)
  ret void
}